; Function Attrs: mustprogress nounwind uwtable
define dso_local void @_ZN11conformance19ConformanceResponseD0Ev(ptr noundef nonnull align 8 dereferenceable(32) %this) unnamed_addr #5 align 2 personality ptr @__gxx_personality_v0 {
entry:
  %_oneof_case_.i.i.i.i = getelementptr inbounds i8, ptr %this, i64 28
  %0 = load i32, ptr %_oneof_case_.i.i.i.i, align 4
  %cmp.i.not.i.i = icmp eq i32 %0, 0
  br i1 %cmp.i.not.i.i, label %invoke.cont.i, label %if.then.i.i

if.then.i.i:                                      ; preds = %entry
  tail call void @_ZN11conformance19ConformanceResponse12clear_resultEv(ptr noundef nonnull align 8 dereferenceable(32) %this)
  br label %invoke.cont.i

invoke.cont.i:                                    ; preds = %if.then.i.i, %entry
  %_internal_metadata_.i = getelementptr inbounds i8, ptr %this, i64 8
  %1 = load ptr, ptr %_internal_metadata_.i, align 8
  %2 = ptrtoint ptr %1 to i64
  %conv.i111.i.i = and i64 %2, 1
  %cmp.i.not.i1.i = icmp eq i64 %conv.i111.i.i, 0
  br i1 %cmp.i.not.i1.i, label %_ZN11conformance19ConformanceResponseD2Ev.exit, label %if.then.i.i.i

if.then.i.i.i:                                    ; preds = %invoke.cont.i
  %and.i.i.i = and i64 %2, -2
  %3 = inttoptr i64 %and.i.i.i to ptr
  %4 = load ptr, ptr %3, align 8
  %cmp.i.i = icmp eq ptr %4, null
  br i1 %cmp.i.i, label %delete.notnull.i.i, label %_ZN11conformance19ConformanceResponseD2Ev.exit

delete.notnull.i.i:                               ; preds = %if.then.i.i.i
  %unknown_fields.i.i.i = getelementptr inbounds i8, ptr %3, i64 8
  %5 = load ptr, ptr %unknown_fields.i.i.i, align 8
  %_M_finish.i.i.i.i.i.i.i = getelementptr inbounds i8, ptr %3, i64 16
  %6 = load ptr, ptr %_M_finish.i.i.i.i.i.i.i, align 8
  %cmp.i.i.i.i.i.i.i = icmp eq ptr %5, %6
  br i1 %cmp.i.i.i.i.i.i.i, label %invoke.cont.i.i.i.i, label %if.then.i.i.i.i.i

if.then.i.i.i.i.i:                                ; preds = %delete.notnull.i.i
  invoke void @_ZN6google8protobuf15UnknownFieldSet13ClearFallbackEv(ptr noundef nonnull align 8 dereferenceable(24) %unknown_fields.i.i.i)
          to label %invoke.contthread-pre-split.i.i.i.i unwind label %terminate.lpad.i.i.i.i

invoke.contthread-pre-split.i.i.i.i:              ; preds = %if.then.i.i.i.i.i
  %.pr.i.i.i.i = load ptr, ptr %unknown_fields.i.i.i, align 8
  br label %invoke.cont.i.i.i.i

invoke.cont.i.i.i.i:                              ; preds = %invoke.contthread-pre-split.i.i.i.i, %delete.notnull.i.i
  %7 = phi ptr [ %.pr.i.i.i.i, %invoke.contthread-pre-split.i.i.i.i ], [ %5, %delete.notnull.i.i ]
  %tobool.not.i.i.i.i.i.i.i = icmp eq ptr %7, null
  br i1 %tobool.not.i.i.i.i.i.i.i, label %_ZN6google8protobuf8internal16InternalMetadata9ContainerINS0_15UnknownFieldSetEED2Ev.exit.i.i, label %if.then.i.i.i.i.i.i.i

if.then.i.i.i.i.i.i.i:                            ; preds = %invoke.cont.i.i.i.i
  tail call void @_ZdlPv(ptr noundef nonnull %7) #23
  br label %_ZN6google8protobuf8internal16InternalMetadata9ContainerINS0_15UnknownFieldSetEED2Ev.exit.i.i

terminate.lpad.i.i.i.i:                           ; preds = %if.then.i.i.i.i.i
  %8 = landingpad { ptr, i32 }
          catch ptr null
  %9 = extractvalue { ptr, i32 } %8, 0
  tail call void @__clang_call_terminate(ptr %9) #24
  unreachable

_ZN6google8protobuf8internal16InternalMetadata9ContainerINS0_15UnknownFieldSetEED2Ev.exit.i.i: ; preds = %if.then.i.i.i.i.i.i.i, %invoke.cont.i.i.i.i
  tail call void @_ZdlPv(ptr noundef nonnull %3) #23
  br label %_ZN11conformance19ConformanceResponseD2Ev.exit

_ZN11conformance19ConformanceResponseD2Ev.exit:   ; preds = %invoke.cont.i, %if.then.i.i.i, %_ZN6google8protobuf8internal16InternalMetadata9ContainerINS0_15UnknownFieldSetEED2Ev.exit.i.i
  tail call void @_ZdlPv(ptr noundef nonnull %this) #23
  ret void
}